#include <math.h>
#include <stdio.h>
#include <stdlib.h>
#include <string.h>

int main(){
    char zfc[5];
    int i,a;
    scanf("%s",zfc);
    for(i=0;i<strlen(zfc)/2;i++){
        a=zfc[i];
        zfc[i]=zfc[strlen(zfc)-i-1];
        zfc[strlen(zfc)-i-1]=a;
    }
    printf("%s",zfc);
    return 0;
}