; ModuleID = '56/1373.c'
source_filename = "56/1373.c"
target datalayout = "e-m:e-p270:32:32-p271:32:32-p272:64:64-i64:64-f80:128-n8:16:32:64-S128"
target triple = "x86_64-pc-linux-gnu"

@.str = private unnamed_addr constant [3 x i8] c"%s\00", align 1

; Function Attrs: noinline nounwind uwtable
define dso_local i32 @main() #0 {
  %1 = alloca i32, align 4
  %2 = alloca [5 x i8], align 1
  %3 = alloca i32, align 4
  %4 = alloca i32, align 4
  store i32 0, i32* %1, align 4
  %5 = getelementptr inbounds [5 x i8], [5 x i8]* %2, i64 0, i64 0
  %6 = call i32 (i8*, ...) @__isoc99_scanf(i8* getelementptr inbounds ([3 x i8], [3 x i8]* @.str, i64 0, i64 0), i8* %5)
  store i32 0, i32* %3, align 4
  br label %7

7:                                                ; preds = %40, %0
  %8 = load i32, i32* %3, align 4
  %9 = sext i32 %8 to i64
  %10 = getelementptr inbounds [5 x i8], [5 x i8]* %2, i64 0, i64 0
  %11 = call i64 @strlen(i8* %10) #3
  %12 = udiv i64 %11, 2
  %13 = icmp ult i64 %9, %12
  br i1 %13, label %14, label %43

14:                                               ; preds = %7
  %15 = load i32, i32* %3, align 4
  %16 = sext i32 %15 to i64
  %17 = getelementptr inbounds [5 x i8], [5 x i8]* %2, i64 0, i64 %16
  %18 = load i8, i8* %17, align 1
  %19 = sext i8 %18 to i32
  store i32 %19, i32* %4, align 4
  %20 = getelementptr inbounds [5 x i8], [5 x i8]* %2, i64 0, i64 0
  %21 = call i64 @strlen(i8* %20) #3
  %22 = load i32, i32* %3, align 4
  %23 = sext i32 %22 to i64
  %24 = sub i64 %21, %23
  %25 = sub i64 %24, 1
  %26 = getelementptr inbounds [5 x i8], [5 x i8]* %2, i64 0, i64 %25
  %27 = load i8, i8* %26, align 1
  %28 = load i32, i32* %3, align 4
  %29 = sext i32 %28 to i64
  %30 = getelementptr inbounds [5 x i8], [5 x i8]* %2, i64 0, i64 %29
  store i8 %27, i8* %30, align 1
  %31 = load i32, i32* %4, align 4
  %32 = trunc i32 %31 to i8
  %33 = getelementptr inbounds [5 x i8], [5 x i8]* %2, i64 0, i64 0
  %34 = call i64 @strlen(i8* %33) #3
  %35 = load i32, i32* %3, align 4
  %36 = sext i32 %35 to i64
  %37 = sub i64 %34, %36
  %38 = sub i64 %37, 1
  %39 = getelementptr inbounds [5 x i8], [5 x i8]* %2, i64 0, i64 %38
  store i8 %32, i8* %39, align 1
  br label %40

40:                                               ; preds = %14
  %41 = load i32, i32* %3, align 4
  %42 = add nsw i32 %41, 1
  store i32 %42, i32* %3, align 4
  br label %7

43:                                               ; preds = %7
  %44 = getelementptr inbounds [5 x i8], [5 x i8]* %2, i64 0, i64 0
  %45 = call i32 (i8*, ...) @printf(i8* getelementptr inbounds ([3 x i8], [3 x i8]* @.str, i64 0, i64 0), i8* %44)
  ret i32 0
}

declare dso_local i32 @__isoc99_scanf(i8*, ...) #1

; Function Attrs: nounwind readonly
declare dso_local i64 @strlen(i8*) #2

declare dso_local i32 @printf(i8*, ...) #1


!llvm.module.flags = !{!0}
!llvm.ident = !{!1}

!0 = !{i32 1, !"wchar_size", i32 4}
!1 = !{!"clang version 10.0.0-4ubuntu1 "}
